target datalayout = "e-m:e-p270:32:32-p271:32:32-p272:64:64-i64:64-i128:128-f80:128-n8:16:32:64-S128"
target triple = "x86_64-pc-linux-gnu"

@.str = private unnamed_addr constant [44 x i8] c"array size exceeds the maximum allowed (%d)\00", align 1
@.str.1 = private unnamed_addr constant [13 x i8] c"arrayutils.c\00", align 1
@__func__.ArrayGetNItemsSafe = private unnamed_addr constant [19 x i8] c"ArrayGetNItemsSafe\00", align 1

; Function Attrs: nounwind uwtable
define dso_local i32 @ArrayGetNItemsSafe(i32 noundef %0, ptr noundef %1, ptr noundef %2) #0 {
  %4 = alloca i32, align 4
  %5 = alloca i32, align 4
  %6 = alloca ptr, align 8
  %7 = alloca ptr, align 8
  %8 = alloca i32, align 4
  %9 = alloca i32, align 4
  %10 = alloca i32, align 4
  %11 = alloca i64, align 8
  %12 = alloca ptr, align 8
  %13 = alloca ptr, align 8
  %14 = alloca ptr, align 8
  store i32 %0, ptr %5, align 4
  store ptr %1, ptr %6, align 8
  store ptr %2, ptr %7, align 8
  call void @llvm.lifetime.start.p0(i64 4, ptr %8) #6
  call void @llvm.lifetime.start.p0(i64 4, ptr %9) #6
  %15 = load i32, ptr %5, align 4
  %16 = icmp sle i32 %15, 0
  br i1 %16, label %17, label %18

17:                                               ; preds = %3
  store i32 0, ptr %4, align 4
  store i32 1, ptr %10, align 4
  br label %104

18:                                               ; preds = %3
  store i32 1, ptr %8, align 4
  store i32 0, ptr %9, align 4
  br label %19

19:                                               ; preds = %80, %18
  %20 = load i32, ptr %9, align 4
  %21 = load i32, ptr %5, align 4
  %22 = icmp slt i32 %20, %21
  br i1 %22, label %23, label %83

23:                                               ; preds = %19
  call void @llvm.lifetime.start.p0(i64 8, ptr %11) #6
  %24 = load ptr, ptr %6, align 8
  %25 = load i32, ptr %9, align 4
  %26 = sext i32 %25 to i64
  %27 = getelementptr inbounds i32, ptr %24, i64 %26
  %28 = load i32, ptr %27, align 4
  %29 = icmp slt i32 %28, 0
  br i1 %29, label %30, label %45

30:                                               ; preds = %23
  br label %31

31:                                               ; preds = %30
  br label %32

32:                                               ; preds = %31
  call void @llvm.lifetime.start.p0(i64 8, ptr %12) #6
  %33 = load ptr, ptr %7, align 8
  store ptr %33, ptr %12, align 8
  %34 = load ptr, ptr %12, align 8
  %35 = call zeroext i1 @errsave_start(ptr noundef %34, ptr noundef null)
  br i1 %35, label %36, label %40

36:                                               ; preds = %32
  %37 = call i32 @errcode(i32 noundef 261)
  %38 = call i32 (ptr, ...) @errmsg(ptr noundef @.str, i32 noundef 134217727)
  %39 = load ptr, ptr %12, align 8
  call void @errsave_finish(ptr noundef %39, ptr noundef @.str.1, i32 noundef 84, ptr noundef @__func__.ArrayGetNItemsSafe)
  br label %40

40:                                               ; preds = %36, %32
  call void @llvm.lifetime.end.p0(i64 8, ptr %12) #6
  br label %41

41:                                               ; preds = %40
  br label %42

42:                                               ; preds = %41
  store i32 -1, ptr %4, align 4
  store i32 1, ptr %10, align 4
  br label %77

43:                                               ; No predecessors!
  br label %44

44:                                               ; preds = %43
  br label %45

45:                                               ; preds = %44, %23
  %46 = load i32, ptr %8, align 4
  %47 = sext i32 %46 to i64
  %48 = load ptr, ptr %6, align 8
  %49 = load i32, ptr %9, align 4
  %50 = sext i32 %49 to i64
  %51 = getelementptr inbounds i32, ptr %48, i64 %50
  %52 = load i32, ptr %51, align 4
  %53 = sext i32 %52 to i64
  %54 = mul i64 %47, %53
  store i64 %54, ptr %11, align 8
  %55 = load i64, ptr %11, align 8
  %56 = trunc i64 %55 to i32
  store i32 %56, ptr %8, align 4
  %57 = load i32, ptr %8, align 4
  %58 = sext i32 %57 to i64
  %59 = load i64, ptr %11, align 8
  %60 = icmp ne i64 %58, %59
  br i1 %60, label %61, label %76

61:                                               ; preds = %45
  br label %62

62:                                               ; preds = %61
  br label %63

63:                                               ; preds = %62
  call void @llvm.lifetime.start.p0(i64 8, ptr %13) #6
  %64 = load ptr, ptr %7, align 8
  store ptr %64, ptr %13, align 8
  %65 = load ptr, ptr %13, align 8
  %66 = call zeroext i1 @errsave_start(ptr noundef %65, ptr noundef null)
  br i1 %66, label %67, label %71

67:                                               ; preds = %63
  %68 = call i32 @errcode(i32 noundef 261)
  %69 = call i32 (ptr, ...) @errmsg(ptr noundef @.str, i32 noundef 134217727)
  %70 = load ptr, ptr %13, align 8
  call void @errsave_finish(ptr noundef %70, ptr noundef @.str.1, i32 noundef 93, ptr noundef @__func__.ArrayGetNItemsSafe)
  br label %71

71:                                               ; preds = %67, %63
  call void @llvm.lifetime.end.p0(i64 8, ptr %13) #6
  br label %72

72:                                               ; preds = %71
  br label %73

73:                                               ; preds = %72
  store i32 -1, ptr %4, align 4
  store i32 1, ptr %10, align 4
  br label %77

74:                                               ; No predecessors!
  br label %75

75:                                               ; preds = %74
  br label %76

76:                                               ; preds = %75, %45
  store i32 0, ptr %10, align 4
  br label %77

77:                                               ; preds = %76, %73, %42
  call void @llvm.lifetime.end.p0(i64 8, ptr %11) #6
  %78 = load i32, ptr %10, align 4
  switch i32 %78, label %104 [
    i32 0, label %79
  ]

79:                                               ; preds = %77
  br label %80

80:                                               ; preds = %79
  %81 = load i32, ptr %9, align 4
  %82 = add i32 %81, 1
  store i32 %82, ptr %9, align 4
  br label %19, !llvm.loop !6

83:                                               ; preds = %19
  %84 = load i32, ptr %8, align 4
  %85 = sext i32 %84 to i64
  %86 = icmp ugt i64 %85, 134217727
  br i1 %86, label %87, label %102

87:                                               ; preds = %83
  br label %88

88:                                               ; preds = %87
  br label %89

89:                                               ; preds = %88
  call void @llvm.lifetime.start.p0(i64 8, ptr %14) #6
  %90 = load ptr, ptr %7, align 8
  store ptr %90, ptr %14, align 8
  %91 = load ptr, ptr %14, align 8
  %92 = call zeroext i1 @errsave_start(ptr noundef %91, ptr noundef null)
  br i1 %92, label %93, label %97

93:                                               ; preds = %89
  %94 = call i32 @errcode(i32 noundef 261)
  %95 = call i32 (ptr, ...) @errmsg(ptr noundef @.str, i32 noundef 134217727)
  %96 = load ptr, ptr %14, align 8
  call void @errsave_finish(ptr noundef %96, ptr noundef @.str.1, i32 noundef 100, ptr noundef @__func__.ArrayGetNItemsSafe)
  br label %97

97:                                               ; preds = %93, %89
  call void @llvm.lifetime.end.p0(i64 8, ptr %14) #6
  br label %98

98:                                               ; preds = %97
  br label %99

99:                                               ; preds = %98
  store i32 -1, ptr %4, align 4
  store i32 1, ptr %10, align 4
  br label %104

100:                                              ; No predecessors!
  br label %101

101:                                              ; preds = %100
  br label %102

102:                                              ; preds = %101, %83
  %103 = load i32, ptr %8, align 4
  store i32 %103, ptr %4, align 4
  store i32 1, ptr %10, align 4
  br label %104

104:                                              ; preds = %102, %99, %77, %17
  call void @llvm.lifetime.end.p0(i64 4, ptr %9) #6
  call void @llvm.lifetime.end.p0(i64 4, ptr %8) #6
  %105 = load i32, ptr %4, align 4
  ret i32 %105
}