; Function Attrs: nounwind uwtable
define dso_local range(i32 -1, 134217728) i32 @ArrayGetNItemsSafe(i32 noundef %0, ptr noundef readonly captures(none) %1, ptr noundef %2) local_unnamed_addr #2 {
  %4 = icmp slt i32 %0, 1
  br i1 %4, label %.thread, label %.preheader.preheader

.preheader.preheader:                             ; preds = %3
  %wide.trip.count = zext nneg i32 %0 to i64
  br label %.preheader

5:                                                ; preds = %11
  %indvars.iv.next = add nuw nsw i64 %indvars.iv, 1
  %exitcond.not = icmp eq i64 %indvars.iv.next, %wide.trip.count
  br i1 %exitcond.not, label %18, label %.preheader, !llvm.loop !6

.preheader:                                       ; preds = %.preheader.preheader, %5
  %indvars.iv = phi i64 [ 0, %.preheader.preheader ], [ %indvars.iv.next, %5 ]
  %.02435 = phi i64 [ 1, %.preheader.preheader ], [ %14, %5 ]
  %6 = getelementptr inbounds nuw i32, ptr %1, i64 %indvars.iv
  %7 = load i32, ptr %6, align 4
  %8 = icmp slt i32 %7, 0
  br i1 %8, label %9, label %11

9:                                                ; preds = %.preheader
  %10 = tail call zeroext i1 @errsave_start(ptr noundef %2, ptr noundef null) #8
  br i1 %10, label %.thread.sink.split, label %.thread

11:                                               ; preds = %.preheader
  %sext = shl i64 %.02435, 32
  %12 = ashr exact i64 %sext, 32
  %13 = zext nneg i32 %7 to i64
  %14 = mul nsw i64 %12, %13
  %15 = add nsw i64 %14, 2147483648
  %.not = icmp ult i64 %15, 4294967296
  br i1 %.not, label %5, label %16

16:                                               ; preds = %11
  %17 = tail call zeroext i1 @errsave_start(ptr noundef %2, ptr noundef null) #8
  br i1 %17, label %.thread.sink.split, label %.thread

18:                                               ; preds = %5
  %19 = trunc i64 %14 to i32
  %20 = icmp ugt i32 %19, 134217727
  br i1 %20, label %21, label %.thread

21:                                               ; preds = %18
  %22 = tail call zeroext i1 @errsave_start(ptr noundef %2, ptr noundef null) #8
  br i1 %22, label %.thread.sink.split, label %.thread

.thread.sink.split:                               ; preds = %21, %16, %9
  %.sink = phi i32 [ 84, %9 ], [ 93, %16 ], [ 100, %21 ]
  %23 = tail call i32 @errcode(i32 noundef 261) #8
  %24 = tail call i32 (ptr, ...) @errmsg(ptr noundef nonnull @.str, i32 noundef 134217727) #8
  tail call void @errsave_finish(ptr noundef %2, ptr noundef nonnull @.str.1, i32 noundef %.sink, ptr noundef nonnull @__func__.ArrayGetNItemsSafe) #8
  br label %.thread

.thread:                                          ; preds = %.thread.sink.split, %16, %9, %18, %21, %3
  %.0 = phi i32 [ 0, %3 ], [ -1, %21 ], [ %19, %18 ], [ -1, %9 ], [ -1, %16 ], [ -1, %.thread.sink.split ]
  ret i32 %.0
}